; Function Attrs: mustprogress uwtable
define hidden noundef zeroext i1 @_ZNK5zxing12BinaryBitmap15isCropSupportedEv(ptr noundef nonnull readonly align 8 captures(none) dereferenceable(32) %0) local_unnamed_addr #3 align 2 personality ptr @__gxx_personality_v0 {
  %2 = alloca %"class.zxing::Ref.2", align 8
  call void @llvm.lifetime.start.p0(i64 8, ptr nonnull %2) #9
  %3 = getelementptr inbounds nuw i8, ptr %0, i64 16
  %4 = load ptr, ptr %3, align 8, !tbaa !10, !noalias !23
  call void @_ZNK5zxing9Binarizer18getLuminanceSourceEv(ptr dead_on_unwind nonnull writable sret(%"class.zxing::Ref.2") align 8 %2, ptr noundef nonnull align 8 dereferenceable(72) %4)
  %5 = load ptr, ptr %2, align 8, !tbaa !26
  %6 = load ptr, ptr %5, align 8, !tbaa !8
  %7 = getelementptr inbounds nuw i8, ptr %6, i64 40
  %8 = load ptr, ptr %7, align 8
  %9 = invoke noundef zeroext i1 %8(ptr noundef nonnull align 8 dereferenceable(20) %5)
          to label %10 unwind label %21

10:                                               ; preds = %1
  %11 = load ptr, ptr %2, align 8, !tbaa !26
  %.not.i = icmp eq ptr %11, null
  br i1 %.not.i, label %_ZN5zxing3RefINS_15LuminanceSourceEED2Ev.exit, label %12

12:                                               ; preds = %10
  %13 = getelementptr inbounds nuw i8, ptr %11, i64 8
  %14 = load i32, ptr %13, align 8, !tbaa !3
  %15 = add i32 %14, -1
  store i32 %15, ptr %13, align 8, !tbaa !3
  %16 = icmp eq i32 %15, 0
  br i1 %16, label %17, label %_ZN5zxing3RefINS_15LuminanceSourceEED2Ev.exit

17:                                               ; preds = %12
  store i32 -559026175, ptr %13, align 8, !tbaa !3
  %18 = load ptr, ptr %11, align 8, !tbaa !8
  %19 = getelementptr inbounds nuw i8, ptr %18, i64 8
  %20 = load ptr, ptr %19, align 8
  call void %20(ptr noundef nonnull align 8 dereferenceable(12) %11) #9
  br label %_ZN5zxing3RefINS_15LuminanceSourceEED2Ev.exit

_ZN5zxing3RefINS_15LuminanceSourceEED2Ev.exit:    ; preds = %10, %12, %17
  call void @llvm.lifetime.end.p0(i64 8, ptr nonnull %2) #9
  ret i1 %9

21:                                               ; preds = %1
  %22 = landingpad { ptr, i32 }
          cleanup
  %23 = load ptr, ptr %2, align 8, !tbaa !26
  %.not.i2 = icmp eq ptr %23, null
  br i1 %.not.i2, label %_ZN5zxing3RefINS_15LuminanceSourceEED2Ev.exit3, label %24

24:                                               ; preds = %21
  %25 = getelementptr inbounds nuw i8, ptr %23, i64 8
  %26 = load i32, ptr %25, align 8, !tbaa !3
  %27 = add i32 %26, -1
  store i32 %27, ptr %25, align 8, !tbaa !3
  %28 = icmp eq i32 %27, 0
  br i1 %28, label %29, label %_ZN5zxing3RefINS_15LuminanceSourceEED2Ev.exit3

29:                                               ; preds = %24
  store i32 -559026175, ptr %25, align 8, !tbaa !3
  %30 = load ptr, ptr %23, align 8, !tbaa !8
  %31 = getelementptr inbounds nuw i8, ptr %30, i64 8
  %32 = load ptr, ptr %31, align 8
  call void %32(ptr noundef nonnull align 8 dereferenceable(12) %23) #9
  br label %_ZN5zxing3RefINS_15LuminanceSourceEED2Ev.exit3

_ZN5zxing3RefINS_15LuminanceSourceEED2Ev.exit3:   ; preds = %21, %24, %29
  call void @llvm.lifetime.end.p0(i64 8, ptr nonnull %2) #9
  resume { ptr, i32 } %22
}